target datalayout = "e-m:e-p270:32:32-p271:32:32-p272:64:64-i64:64-i128:128-f80:128-n8:16:32:64-S128"
target triple = "x86_64-pc-linux-gnu"

%"class.std::__1::basic_string" = type { %"class.std::__1::__compressed_pair" }
%"class.std::__1::__compressed_pair" = type { %"struct.std::__1::__compressed_pair_elem" }
%"struct.std::__1::__compressed_pair_elem" = type { %"struct.std::__1::basic_string<char>::__rep" }
%"struct.std::__1::basic_string<char>::__rep" = type { %union.anon }
%union.anon = type { %"struct.std::__1::basic_string<char>::__long" }
%"struct.std::__1::basic_string<char>::__long" = type { %struct.anon.0, i64, ptr }
%struct.anon.0 = type { i64 }
%"struct.std::__1::basic_string<char>::__short" = type { %struct.anon, [0 x i8], [23 x i8] }
%struct.anon = type { i8 }

@.str.4 = private unnamed_addr constant [13 x i8] c"/proc/%i/exe\00", align 1
@.str.5 = private unnamed_addr constant [8 x i8] c"bin/gdb\00", align 1
@.str.6 = private unnamed_addr constant [9 x i8] c"bin/lldb\00", align 1

; Function Attrs: mustprogress nounwind uwtable
define linkonce_odr hidden noundef nonnull align 8 dereferenceable(24) ptr @_ZNKSt3__122__compressed_pair_elemINS_12basic_stringIcNS_11char_traitsIcEENS_9allocatorIcEEE5__repELi0ELb0EE5__getB8ne190000Ev(ptr noundef nonnull align 8 dereferenceable(24) %0) #5 comdat align 2 {
  %2 = alloca ptr, align 8
  store ptr %0, ptr %2, align 8
  %3 = load ptr, ptr %2, align 8
  %4 = getelementptr inbounds %"struct.std::__1::__compressed_pair_elem", ptr %3, i32 0, i32 0
  ret ptr %4
}

; Function Attrs: mustprogress nounwind uwtable
define linkonce_odr hidden noundef ptr @_ZNSt3__114pointer_traitsIPKcE10pointer_toB8ne190000ERS1_(ptr noundef nonnull align 1 dereferenceable(1) %0) #5 comdat align 2 {
  %2 = alloca ptr, align 8
  store ptr %0, ptr %2, align 8
  %3 = load ptr, ptr %2, align 8
  ret ptr %3
}

; Function Attrs: mustprogress nounwind uwtable
define linkonce_odr hidden noundef nonnull align 8 dereferenceable(24) ptr @_ZNKSt3__117__compressed_pairINS_12basic_stringIcNS_11char_traitsIcEENS_9allocatorIcEEE5__repES5_E5firstB8ne190000Ev(ptr noundef nonnull align 8 dereferenceable(24) %0) #5 comdat align 2 {
  %2 = alloca ptr, align 8
  store ptr %0, ptr %2, align 8
  %3 = load ptr, ptr %2, align 8
  %4 = call noundef nonnull align 8 dereferenceable(24) ptr @_ZNKSt3__122__compressed_pair_elemINS_12basic_stringIcNS_11char_traitsIcEENS_9allocatorIcEEE5__repELi0ELb0EE5__getB8ne190000Ev(ptr noundef nonnull align 8 dereferenceable(24) %3) #15
  ret ptr %4
}

; Function Attrs: mustprogress nounwind uwtable
define linkonce_odr hidden noundef ptr @_ZNKSt3__112basic_stringIcNS_11char_traitsIcEENS_9allocatorIcEEE19__get_short_pointerB8ne190000Ev(ptr noundef nonnull align 8 dereferenceable(24) %0) #5 comdat align 2 {
  %2 = alloca ptr, align 8
  store ptr %0, ptr %2, align 8
  %3 = load ptr, ptr %2, align 8
  %4 = getelementptr inbounds %"class.std::__1::basic_string", ptr %3, i32 0, i32 0
  %5 = call noundef nonnull align 8 dereferenceable(24) ptr @_ZNKSt3__117__compressed_pairINS_12basic_stringIcNS_11char_traitsIcEENS_9allocatorIcEEE5__repES5_E5firstB8ne190000Ev(ptr noundef nonnull align 8 dereferenceable(24) %4) #15
  %6 = getelementptr inbounds %"struct.std::__1::basic_string<char>::__rep", ptr %5, i32 0, i32 0
  %7 = getelementptr inbounds %"struct.std::__1::basic_string<char>::__short", ptr %6, i32 0, i32 2
  %8 = getelementptr inbounds [23 x i8], ptr %7, i64 0, i64 0
  %9 = call noundef ptr @_ZNSt3__114pointer_traitsIPKcE10pointer_toB8ne190000ERS1_(ptr noundef nonnull align 1 dereferenceable(1) %8) #15
  ret ptr %9
}

; Function Attrs: mustprogress nounwind uwtable
define linkonce_odr hidden noundef ptr @_ZNKSt3__112basic_stringIcNS_11char_traitsIcEENS_9allocatorIcEEE18__get_long_pointerB8ne190000Ev(ptr noundef nonnull align 8 dereferenceable(24) %0) #5 comdat align 2 {
  %2 = alloca ptr, align 8
  store ptr %0, ptr %2, align 8
  %3 = load ptr, ptr %2, align 8
  %4 = getelementptr inbounds %"class.std::__1::basic_string", ptr %3, i32 0, i32 0
  %5 = call noundef nonnull align 8 dereferenceable(24) ptr @_ZNKSt3__117__compressed_pairINS_12basic_stringIcNS_11char_traitsIcEENS_9allocatorIcEEE5__repES5_E5firstB8ne190000Ev(ptr noundef nonnull align 8 dereferenceable(24) %4) #15
  %6 = getelementptr inbounds %"struct.std::__1::basic_string<char>::__rep", ptr %5, i32 0, i32 0
  %7 = getelementptr inbounds %"struct.std::__1::basic_string<char>::__long", ptr %6, i32 0, i32 2
  %8 = load ptr, ptr %7, align 8
  ret ptr %8
}

; Function Attrs: mustprogress nounwind uwtable
define linkonce_odr hidden noundef zeroext i1 @_ZNKSt3__112basic_stringIcNS_11char_traitsIcEENS_9allocatorIcEEE9__is_longB8ne190000Ev(ptr noundef nonnull align 8 dereferenceable(24) %0) #5 comdat align 2 {
  %2 = alloca ptr, align 8
  store ptr %0, ptr %2, align 8
  %3 = load ptr, ptr %2, align 8
  %4 = getelementptr inbounds %"class.std::__1::basic_string", ptr %3, i32 0, i32 0
  %5 = call noundef nonnull align 8 dereferenceable(24) ptr @_ZNKSt3__117__compressed_pairINS_12basic_stringIcNS_11char_traitsIcEENS_9allocatorIcEEE5__repES5_E5firstB8ne190000Ev(ptr noundef nonnull align 8 dereferenceable(24) %4) #15
  %6 = getelementptr inbounds %"struct.std::__1::basic_string<char>::__rep", ptr %5, i32 0, i32 0
  %7 = getelementptr inbounds %"struct.std::__1::basic_string<char>::__short", ptr %6, i32 0, i32 0
  %8 = load i8, ptr %7, align 8
  %9 = and i8 %8, 1
  %10 = icmp ne i8 %9, 0
  ret i1 %10
}

; Function Attrs: mustprogress nounwind uwtable
define linkonce_odr hidden noundef ptr @_ZNSt3__112__to_addressB8ne190000IKcEEPT_S3_(ptr noundef %0) #5 comdat {
  %2 = alloca ptr, align 8
  store ptr %0, ptr %2, align 8
  %3 = load ptr, ptr %2, align 8
  ret ptr %3
}

; Function Attrs: mustprogress nounwind uwtable
define linkonce_odr hidden noundef ptr @_ZNKSt3__112basic_stringIcNS_11char_traitsIcEENS_9allocatorIcEEE13__get_pointerB8ne190000Ev(ptr noundef nonnull align 8 dereferenceable(24) %0) #5 comdat align 2 {
  %2 = alloca ptr, align 8
  store ptr %0, ptr %2, align 8
  %3 = load ptr, ptr %2, align 8
  %4 = call noundef zeroext i1 @_ZNKSt3__112basic_stringIcNS_11char_traitsIcEENS_9allocatorIcEEE9__is_longB8ne190000Ev(ptr noundef nonnull align 8 dereferenceable(24) %3) #15
  br i1 %4, label %5, label %7

5:                                                ; preds = %1
  %6 = call noundef ptr @_ZNKSt3__112basic_stringIcNS_11char_traitsIcEENS_9allocatorIcEEE18__get_long_pointerB8ne190000Ev(ptr noundef nonnull align 8 dereferenceable(24) %3) #15
  br label %9

7:                                                ; preds = %1
  %8 = call noundef ptr @_ZNKSt3__112basic_stringIcNS_11char_traitsIcEENS_9allocatorIcEEE19__get_short_pointerB8ne190000Ev(ptr noundef nonnull align 8 dereferenceable(24) %3) #15
  br label %9

9:                                                ; preds = %7, %5
  %10 = phi ptr [ %6, %5 ], [ %8, %7 ]
  ret ptr %10
}

; Function Attrs: mustprogress nounwind uwtable
define linkonce_odr hidden noundef ptr @_ZNKSt3__112basic_stringIcNS_11char_traitsIcEENS_9allocatorIcEEE4dataB8ne190000Ev(ptr noundef nonnull align 8 dereferenceable(24) %0) #5 comdat align 2 {
  %2 = alloca ptr, align 8
  store ptr %0, ptr %2, align 8
  %3 = load ptr, ptr %2, align 8
  %4 = call noundef ptr @_ZNKSt3__112basic_stringIcNS_11char_traitsIcEENS_9allocatorIcEEE13__get_pointerB8ne190000Ev(ptr noundef nonnull align 8 dereferenceable(24) %3) #15
  %5 = call noundef ptr @_ZNSt3__112__to_addressB8ne190000IKcEEPT_S3_(ptr noundef %4) #15
  ret ptr %5
}

; Function Attrs: mustprogress nounwind uwtable
define linkonce_odr hidden noundef ptr @_ZNKSt3__112basic_stringIcNS_11char_traitsIcEENS_9allocatorIcEEE5c_strB8ne190000Ev(ptr noundef nonnull align 8 dereferenceable(24) %0) #5 comdat align 2 {
  %2 = alloca ptr, align 8
  store ptr %0, ptr %2, align 8
  %3 = load ptr, ptr %2, align 8
  %4 = call noundef ptr @_ZNKSt3__112basic_stringIcNS_11char_traitsIcEENS_9allocatorIcEEE4dataB8ne190000Ev(ptr noundef nonnull align 8 dereferenceable(24) %3) #15
  ret ptr %4
}

; Function Attrs: mustprogress uwtable
define noundef zeroext i1 @_ZN7mitsuba4util15detect_debuggerEv() #0 {
  %1 = alloca i1, align 1
  %2 = alloca [4096 x i8], align 16
  %3 = alloca %"class.std::__1::basic_string", align 8
  %4 = alloca i32, align 4
  %5 = alloca i32, align 4
  %6 = getelementptr inbounds [4096 x i8], ptr %2, i64 0, i64 0
  call void @llvm.memset.p0.i64(ptr align 16 %6, i8 0, i64 4096, i1 false)
  %7 = call i32 @getppid() #15
  store i32 %7, ptr %4, align 4
  call void @_ZN10tinyformat6formatIJiEEENSt3__112basic_stringIcNS1_11char_traitsIcEENS1_9allocatorIcEEEEPKcDpRKT_(ptr dead_on_unwind writable sret(%"class.std::__1::basic_string") align 8 %3, ptr noundef @.str.4, ptr noundef nonnull align 4 dereferenceable(4) %4)
  %8 = call noundef ptr @_ZNKSt3__112basic_stringIcNS_11char_traitsIcEENS_9allocatorIcEEE5c_strB8ne190000Ev(ptr noundef nonnull align 8 dereferenceable(24) %3) #15
  %9 = getelementptr inbounds [4096 x i8], ptr %2, i64 0, i64 0
  %10 = call i64 @readlink(ptr noundef %8, ptr noundef %9, i64 noundef 4096) #15
  %11 = icmp ne i64 %10, -1
  br i1 %11, label %12, label %22

12:                                               ; preds = %0
  %13 = getelementptr inbounds [4096 x i8], ptr %2, i64 0, i64 0
  %14 = call noundef ptr @strstr(ptr noundef %13, ptr noundef @.str.5) #18
  %15 = icmp ne ptr %14, null
  br i1 %15, label %20, label %16

16:                                               ; preds = %12
  %17 = getelementptr inbounds [4096 x i8], ptr %2, i64 0, i64 0
  %18 = call noundef ptr @strstr(ptr noundef %17, ptr noundef @.str.6) #18
  %19 = icmp ne ptr %18, null
  br i1 %19, label %20, label %21

20:                                               ; preds = %16, %12
  store i1 true, ptr %1, align 1
  store i32 1, ptr %5, align 4
  br label %23

21:                                               ; preds = %16
  br label %22

22:                                               ; preds = %21, %0
  store i1 false, ptr %1, align 1
  store i32 1, ptr %5, align 4
  br label %23

23:                                               ; preds = %22, %20
  call void @_ZNSt3__112basic_stringIcNS_11char_traitsIcEENS_9allocatorIcEEED1Ev(ptr noundef nonnull align 8 dereferenceable(24) %3) #15
  %24 = load i1, ptr %1, align 1
  ret i1 %24
}