; Function Attrs: mustprogress uwtable
define noundef zeroext i1 @_ZN7mitsuba4util15detect_debuggerEv() local_unnamed_addr #0 {
  %1 = alloca [4096 x i8], align 16
  %2 = alloca %"class.std::__1::basic_string", align 8
  %3 = alloca i32, align 4
  call void @llvm.memset.p0.i64(ptr noundef nonnull align 16 dereferenceable(4096) %1, i8 0, i64 4096, i1 false)
  %4 = tail call i32 @getppid() #18
  store i32 %4, ptr %3, align 4
  call void @_ZN10tinyformat6formatIJiEEENSt3__112basic_stringIcNS1_11char_traitsIcEENS1_9allocatorIcEEEEPKcDpRKT_(ptr dead_on_unwind nonnull writable sret(%"class.std::__1::basic_string") align 8 %2, ptr noundef nonnull @.str.4, ptr noundef nonnull align 4 dereferenceable(4) %3)
  %5 = load i8, ptr %2, align 8
  %6 = and i8 %5, 1
  %.not.i.i.i = icmp eq i8 %6, 0
  %7 = getelementptr inbounds i8, ptr %2, i64 16
  %8 = load ptr, ptr %7, align 8
  %9 = getelementptr inbounds i8, ptr %2, i64 1
  %10 = select i1 %.not.i.i.i, ptr %9, ptr %8
  %11 = call i64 @readlink(ptr noundef %10, ptr noundef nonnull %1, i64 noundef 4096) #18
  %.not = icmp eq i64 %11, -1
  br i1 %.not, label %16, label %12

12:                                               ; preds = %0
  %13 = call noundef ptr @strstr(ptr noundef nonnull dereferenceable(1) %1, ptr noundef nonnull dereferenceable(1) @.str.5) #21
  %.not1 = icmp eq ptr %13, null
  br i1 %.not1, label %14, label %17

14:                                               ; preds = %12
  %15 = call noundef ptr @strstr(ptr noundef nonnull dereferenceable(1) %1, ptr noundef nonnull dereferenceable(1) @.str.6) #21
  %.not2 = icmp eq ptr %15, null
  br i1 %.not2, label %16, label %17

16:                                               ; preds = %14, %0
  br label %17

17:                                               ; preds = %12, %14, %16
  %.0 = phi i1 [ false, %16 ], [ true, %14 ], [ true, %12 ]
  call void @_ZNSt3__112basic_stringIcNS_11char_traitsIcEENS_9allocatorIcEEED1Ev(ptr noundef nonnull align 8 dereferenceable(24) %2) #18
  ret i1 %.0
}